ARM GAS  C:\Users\Walaa\AppData\Local\Temp\ccwV3GkV.s 			page 1


   1              		.syntax unified
   2              		.cpu cortex-m3
   3              		.fpu softvfp
   4              		.eabi_attribute 20, 1
   5              		.eabi_attribute 21, 1
   6              		.eabi_attribute 23, 3
   7              		.eabi_attribute 24, 1
   8              		.eabi_attribute 25, 1
   9              		.eabi_attribute 26, 1
  10              		.eabi_attribute 30, 1
  11              		.eabi_attribute 34, 1
  12              		.eabi_attribute 18, 4
  13              		.thumb
  14              		.syntax unified
  15              		.file	"count_time_to_transmit.c"
  16              		.text
  17              	.Ltext0:
  18              		.cfi_sections	.debug_frame
  19              		.section	.text.count_time_to_transmit_Enable,"ax",%progbits
  20              		.align	2
  21              		.global	count_time_to_transmit_Enable
  22              		.thumb
  23              		.thumb_func
  24              		.type	count_time_to_transmit_Enable, %function
  25              	count_time_to_transmit_Enable:
  26              	.LFB1:
  27              		.file 1 "Generated_Source\\PSoC5\\count_time_to_transmit.c"
   1:Generated_Source\PSoC5/count_time_to_transmit.c **** /*******************************************************************************
   2:Generated_Source\PSoC5/count_time_to_transmit.c **** * File Name: count_time_to_transmit.c  
   3:Generated_Source\PSoC5/count_time_to_transmit.c **** * Version 3.0
   4:Generated_Source\PSoC5/count_time_to_transmit.c **** *
   5:Generated_Source\PSoC5/count_time_to_transmit.c **** *  Description:
   6:Generated_Source\PSoC5/count_time_to_transmit.c **** *     The Counter component consists of a 8, 16, 24 or 32-bit counter with
   7:Generated_Source\PSoC5/count_time_to_transmit.c **** *     a selectable period between 2 and 2^Width - 1.  
   8:Generated_Source\PSoC5/count_time_to_transmit.c **** *
   9:Generated_Source\PSoC5/count_time_to_transmit.c **** *   Note:
  10:Generated_Source\PSoC5/count_time_to_transmit.c **** *     None
  11:Generated_Source\PSoC5/count_time_to_transmit.c **** *
  12:Generated_Source\PSoC5/count_time_to_transmit.c **** ********************************************************************************
  13:Generated_Source\PSoC5/count_time_to_transmit.c **** * Copyright 2008-2012, Cypress Semiconductor Corporation.  All rights reserved.
  14:Generated_Source\PSoC5/count_time_to_transmit.c **** * You may use this file only in accordance with the license, terms, conditions, 
  15:Generated_Source\PSoC5/count_time_to_transmit.c **** * disclaimers, and limitations in the end user license agreement accompanying 
  16:Generated_Source\PSoC5/count_time_to_transmit.c **** * the software package with which this file was provided.
  17:Generated_Source\PSoC5/count_time_to_transmit.c **** *******************************************************************************/
  18:Generated_Source\PSoC5/count_time_to_transmit.c **** 
  19:Generated_Source\PSoC5/count_time_to_transmit.c **** #include "count_time_to_transmit.h"
  20:Generated_Source\PSoC5/count_time_to_transmit.c **** 
  21:Generated_Source\PSoC5/count_time_to_transmit.c **** uint8 count_time_to_transmit_initVar = 0u;
  22:Generated_Source\PSoC5/count_time_to_transmit.c **** 
  23:Generated_Source\PSoC5/count_time_to_transmit.c **** 
  24:Generated_Source\PSoC5/count_time_to_transmit.c **** /*******************************************************************************
  25:Generated_Source\PSoC5/count_time_to_transmit.c **** * Function Name: count_time_to_transmit_Init
  26:Generated_Source\PSoC5/count_time_to_transmit.c **** ********************************************************************************
  27:Generated_Source\PSoC5/count_time_to_transmit.c **** * Summary:
  28:Generated_Source\PSoC5/count_time_to_transmit.c **** *     Initialize to the schematic state
  29:Generated_Source\PSoC5/count_time_to_transmit.c **** * 
  30:Generated_Source\PSoC5/count_time_to_transmit.c **** * Parameters:  
ARM GAS  C:\Users\Walaa\AppData\Local\Temp\ccwV3GkV.s 			page 2


  31:Generated_Source\PSoC5/count_time_to_transmit.c **** *  void  
  32:Generated_Source\PSoC5/count_time_to_transmit.c **** *
  33:Generated_Source\PSoC5/count_time_to_transmit.c **** * Return: 
  34:Generated_Source\PSoC5/count_time_to_transmit.c **** *  void
  35:Generated_Source\PSoC5/count_time_to_transmit.c **** *
  36:Generated_Source\PSoC5/count_time_to_transmit.c **** *******************************************************************************/
  37:Generated_Source\PSoC5/count_time_to_transmit.c **** void count_time_to_transmit_Init(void) 
  38:Generated_Source\PSoC5/count_time_to_transmit.c **** {
  39:Generated_Source\PSoC5/count_time_to_transmit.c ****         #if (!count_time_to_transmit_UsingFixedFunction && !count_time_to_transmit_ControlRegRemove
  40:Generated_Source\PSoC5/count_time_to_transmit.c ****             uint8 ctrl;
  41:Generated_Source\PSoC5/count_time_to_transmit.c ****         #endif /* (!count_time_to_transmit_UsingFixedFunction && !count_time_to_transmit_ControlReg
  42:Generated_Source\PSoC5/count_time_to_transmit.c ****         
  43:Generated_Source\PSoC5/count_time_to_transmit.c ****         #if(!count_time_to_transmit_UsingFixedFunction) 
  44:Generated_Source\PSoC5/count_time_to_transmit.c ****             /* Interrupt State Backup for Critical Region*/
  45:Generated_Source\PSoC5/count_time_to_transmit.c ****             uint8 count_time_to_transmit_interruptState;
  46:Generated_Source\PSoC5/count_time_to_transmit.c ****         #endif /* (!count_time_to_transmit_UsingFixedFunction) */
  47:Generated_Source\PSoC5/count_time_to_transmit.c ****         
  48:Generated_Source\PSoC5/count_time_to_transmit.c ****         #if (count_time_to_transmit_UsingFixedFunction)
  49:Generated_Source\PSoC5/count_time_to_transmit.c ****             /* Clear all bits but the enable bit (if it's already set for Timer operation */
  50:Generated_Source\PSoC5/count_time_to_transmit.c ****             count_time_to_transmit_CONTROL &= count_time_to_transmit_CTRL_ENABLE;
  51:Generated_Source\PSoC5/count_time_to_transmit.c ****             
  52:Generated_Source\PSoC5/count_time_to_transmit.c ****             /* Clear the mode bits for continuous run mode */
  53:Generated_Source\PSoC5/count_time_to_transmit.c ****             #if (CY_PSOC5A)
  54:Generated_Source\PSoC5/count_time_to_transmit.c ****                 count_time_to_transmit_CONTROL2 &= ((uint8)(~count_time_to_transmit_CTRL_MODE_MASK)
  55:Generated_Source\PSoC5/count_time_to_transmit.c ****             #endif /* (CY_PSOC5A) */
  56:Generated_Source\PSoC5/count_time_to_transmit.c ****             #if (CY_PSOC3 || CY_PSOC5LP)
  57:Generated_Source\PSoC5/count_time_to_transmit.c ****                 count_time_to_transmit_CONTROL3 &= ((uint8)(~count_time_to_transmit_CTRL_MODE_MASK)
  58:Generated_Source\PSoC5/count_time_to_transmit.c ****             #endif /* (CY_PSOC3 || CY_PSOC5LP) */
  59:Generated_Source\PSoC5/count_time_to_transmit.c ****             /* Check if One Shot mode is enabled i.e. RunMode !=0*/
  60:Generated_Source\PSoC5/count_time_to_transmit.c ****             #if (count_time_to_transmit_RunModeUsed != 0x0u)
  61:Generated_Source\PSoC5/count_time_to_transmit.c ****                 /* Set 3rd bit of Control register to enable one shot mode */
  62:Generated_Source\PSoC5/count_time_to_transmit.c ****                 count_time_to_transmit_CONTROL |= count_time_to_transmit_ONESHOT;
  63:Generated_Source\PSoC5/count_time_to_transmit.c ****             #endif /* (count_time_to_transmit_RunModeUsed != 0x0u) */
  64:Generated_Source\PSoC5/count_time_to_transmit.c ****             
  65:Generated_Source\PSoC5/count_time_to_transmit.c ****             /* Set the IRQ to use the status register interrupts */
  66:Generated_Source\PSoC5/count_time_to_transmit.c ****             count_time_to_transmit_CONTROL2 |= count_time_to_transmit_CTRL2_IRQ_SEL;
  67:Generated_Source\PSoC5/count_time_to_transmit.c ****             
  68:Generated_Source\PSoC5/count_time_to_transmit.c ****             /* Clear and Set SYNCTC and SYNCCMP bits of RT1 register */
  69:Generated_Source\PSoC5/count_time_to_transmit.c ****             count_time_to_transmit_RT1 &= ((uint8)(~count_time_to_transmit_RT1_MASK));
  70:Generated_Source\PSoC5/count_time_to_transmit.c ****             count_time_to_transmit_RT1 |= count_time_to_transmit_SYNC;     
  71:Generated_Source\PSoC5/count_time_to_transmit.c ****                     
  72:Generated_Source\PSoC5/count_time_to_transmit.c ****             /*Enable DSI Sync all all inputs of the Timer*/
  73:Generated_Source\PSoC5/count_time_to_transmit.c ****             count_time_to_transmit_RT1 &= ((uint8)(~count_time_to_transmit_SYNCDSI_MASK));
  74:Generated_Source\PSoC5/count_time_to_transmit.c ****             count_time_to_transmit_RT1 |= count_time_to_transmit_SYNCDSI_EN;
  75:Generated_Source\PSoC5/count_time_to_transmit.c **** 
  76:Generated_Source\PSoC5/count_time_to_transmit.c ****         #else
  77:Generated_Source\PSoC5/count_time_to_transmit.c ****             #if(!count_time_to_transmit_ControlRegRemoved)
  78:Generated_Source\PSoC5/count_time_to_transmit.c ****             /* Set the default compare mode defined in the parameter */
  79:Generated_Source\PSoC5/count_time_to_transmit.c ****             ctrl = count_time_to_transmit_CONTROL & ((uint8)(~count_time_to_transmit_CTRL_CMPMODE_M
  80:Generated_Source\PSoC5/count_time_to_transmit.c ****             count_time_to_transmit_CONTROL = ctrl | count_time_to_transmit_DEFAULT_COMPARE_MODE;
  81:Generated_Source\PSoC5/count_time_to_transmit.c ****             
  82:Generated_Source\PSoC5/count_time_to_transmit.c ****             /* Set the default capture mode defined in the parameter */
  83:Generated_Source\PSoC5/count_time_to_transmit.c ****             ctrl = count_time_to_transmit_CONTROL & ((uint8)(~count_time_to_transmit_CTRL_CAPMODE_M
  84:Generated_Source\PSoC5/count_time_to_transmit.c ****             
  85:Generated_Source\PSoC5/count_time_to_transmit.c ****             #if( 0 != count_time_to_transmit_CAPTURE_MODE_CONF)
  86:Generated_Source\PSoC5/count_time_to_transmit.c ****                 count_time_to_transmit_CONTROL = ctrl | count_time_to_transmit_DEFAULT_CAPTURE_MODE
  87:Generated_Source\PSoC5/count_time_to_transmit.c ****             #else
ARM GAS  C:\Users\Walaa\AppData\Local\Temp\ccwV3GkV.s 			page 3


  88:Generated_Source\PSoC5/count_time_to_transmit.c ****                 count_time_to_transmit_CONTROL = ctrl;
  89:Generated_Source\PSoC5/count_time_to_transmit.c ****             #endif /* 0 != count_time_to_transmit_CAPTURE_MODE */ 
  90:Generated_Source\PSoC5/count_time_to_transmit.c ****             
  91:Generated_Source\PSoC5/count_time_to_transmit.c ****             #endif /* (!count_time_to_transmit_ControlRegRemoved) */
  92:Generated_Source\PSoC5/count_time_to_transmit.c ****         #endif /* (count_time_to_transmit_UsingFixedFunction) */
  93:Generated_Source\PSoC5/count_time_to_transmit.c ****         
  94:Generated_Source\PSoC5/count_time_to_transmit.c ****         /* Clear all data in the FIFO's */
  95:Generated_Source\PSoC5/count_time_to_transmit.c ****         #if (!count_time_to_transmit_UsingFixedFunction)
  96:Generated_Source\PSoC5/count_time_to_transmit.c ****             count_time_to_transmit_ClearFIFO();
  97:Generated_Source\PSoC5/count_time_to_transmit.c ****         #endif /* (!count_time_to_transmit_UsingFixedFunction) */
  98:Generated_Source\PSoC5/count_time_to_transmit.c ****         
  99:Generated_Source\PSoC5/count_time_to_transmit.c ****         /* Set Initial values from Configuration */
 100:Generated_Source\PSoC5/count_time_to_transmit.c ****         count_time_to_transmit_WritePeriod(count_time_to_transmit_INIT_PERIOD_VALUE);
 101:Generated_Source\PSoC5/count_time_to_transmit.c ****         #if (!(count_time_to_transmit_UsingFixedFunction && (CY_PSOC5A)))
 102:Generated_Source\PSoC5/count_time_to_transmit.c ****             count_time_to_transmit_WriteCounter(count_time_to_transmit_INIT_COUNTER_VALUE);
 103:Generated_Source\PSoC5/count_time_to_transmit.c ****         #endif /* (!(count_time_to_transmit_UsingFixedFunction && (CY_PSOC5A))) */
 104:Generated_Source\PSoC5/count_time_to_transmit.c ****         count_time_to_transmit_SetInterruptMode(count_time_to_transmit_INIT_INTERRUPTS_MASK);
 105:Generated_Source\PSoC5/count_time_to_transmit.c ****         
 106:Generated_Source\PSoC5/count_time_to_transmit.c ****         #if (!count_time_to_transmit_UsingFixedFunction)
 107:Generated_Source\PSoC5/count_time_to_transmit.c ****             /* Read the status register to clear the unwanted interrupts */
 108:Generated_Source\PSoC5/count_time_to_transmit.c ****             (void)count_time_to_transmit_ReadStatusRegister();
 109:Generated_Source\PSoC5/count_time_to_transmit.c ****             /* Set the compare value (only available to non-fixed function implementation */
 110:Generated_Source\PSoC5/count_time_to_transmit.c ****             count_time_to_transmit_WriteCompare(count_time_to_transmit_INIT_COMPARE_VALUE);
 111:Generated_Source\PSoC5/count_time_to_transmit.c ****             /* Use the interrupt output of the status register for IRQ output */
 112:Generated_Source\PSoC5/count_time_to_transmit.c ****             
 113:Generated_Source\PSoC5/count_time_to_transmit.c ****             /* CyEnterCriticalRegion and CyExitCriticalRegion are used to mark following region cri
 114:Generated_Source\PSoC5/count_time_to_transmit.c ****             /* Enter Critical Region*/
 115:Generated_Source\PSoC5/count_time_to_transmit.c ****             count_time_to_transmit_interruptState = CyEnterCriticalSection();
 116:Generated_Source\PSoC5/count_time_to_transmit.c ****             
 117:Generated_Source\PSoC5/count_time_to_transmit.c ****             count_time_to_transmit_STATUS_AUX_CTRL |= count_time_to_transmit_STATUS_ACTL_INT_EN_MAS
 118:Generated_Source\PSoC5/count_time_to_transmit.c ****             
 119:Generated_Source\PSoC5/count_time_to_transmit.c ****             /* Exit Critical Region*/
 120:Generated_Source\PSoC5/count_time_to_transmit.c ****             CyExitCriticalSection(count_time_to_transmit_interruptState);
 121:Generated_Source\PSoC5/count_time_to_transmit.c ****             
 122:Generated_Source\PSoC5/count_time_to_transmit.c ****         #endif /* (!count_time_to_transmit_UsingFixedFunction) */
 123:Generated_Source\PSoC5/count_time_to_transmit.c **** }
 124:Generated_Source\PSoC5/count_time_to_transmit.c **** 
 125:Generated_Source\PSoC5/count_time_to_transmit.c **** 
 126:Generated_Source\PSoC5/count_time_to_transmit.c **** /*******************************************************************************
 127:Generated_Source\PSoC5/count_time_to_transmit.c **** * Function Name: count_time_to_transmit_Enable
 128:Generated_Source\PSoC5/count_time_to_transmit.c **** ********************************************************************************
 129:Generated_Source\PSoC5/count_time_to_transmit.c **** * Summary:
 130:Generated_Source\PSoC5/count_time_to_transmit.c **** *     Enable the Counter
 131:Generated_Source\PSoC5/count_time_to_transmit.c **** * 
 132:Generated_Source\PSoC5/count_time_to_transmit.c **** * Parameters:  
 133:Generated_Source\PSoC5/count_time_to_transmit.c **** *  void  
 134:Generated_Source\PSoC5/count_time_to_transmit.c **** *
 135:Generated_Source\PSoC5/count_time_to_transmit.c **** * Return: 
 136:Generated_Source\PSoC5/count_time_to_transmit.c **** *  void
 137:Generated_Source\PSoC5/count_time_to_transmit.c **** *
 138:Generated_Source\PSoC5/count_time_to_transmit.c **** * Side Effects: 
 139:Generated_Source\PSoC5/count_time_to_transmit.c **** *   If the Enable mode is set to Hardware only then this function has no effect 
 140:Generated_Source\PSoC5/count_time_to_transmit.c **** *   on the operation of the counter.
 141:Generated_Source\PSoC5/count_time_to_transmit.c **** *
 142:Generated_Source\PSoC5/count_time_to_transmit.c **** *******************************************************************************/
 143:Generated_Source\PSoC5/count_time_to_transmit.c **** void count_time_to_transmit_Enable(void) 
 144:Generated_Source\PSoC5/count_time_to_transmit.c **** {
ARM GAS  C:\Users\Walaa\AppData\Local\Temp\ccwV3GkV.s 			page 4


  28              		.loc 1 144 0
  29              		.cfi_startproc
  30              		@ args = 0, pretend = 0, frame = 0
  31              		@ frame_needed = 0, uses_anonymous_args = 0
  32              		@ link register save eliminated.
 145:Generated_Source\PSoC5/count_time_to_transmit.c ****     /* Globally Enable the Fixed Function Block chosen */
 146:Generated_Source\PSoC5/count_time_to_transmit.c ****     #if (count_time_to_transmit_UsingFixedFunction)
 147:Generated_Source\PSoC5/count_time_to_transmit.c ****         count_time_to_transmit_GLOBAL_ENABLE |= count_time_to_transmit_BLOCK_EN_MASK;
  33              		.loc 1 147 0
  34 0000 084A     		ldr	r2, .L2
  35 0002 1378     		ldrb	r3, [r2]	@ zero_extendqisi2
  36 0004 43F00403 		orr	r3, r3, #4
  37 0008 1370     		strb	r3, [r2]
 148:Generated_Source\PSoC5/count_time_to_transmit.c ****         count_time_to_transmit_GLOBAL_STBY_ENABLE |= count_time_to_transmit_BLOCK_STBY_EN_MASK;
  38              		.loc 1 148 0
  39 000a 1032     		adds	r2, r2, #16
  40 000c 1378     		ldrb	r3, [r2]	@ zero_extendqisi2
  41 000e 43F00403 		orr	r3, r3, #4
  42 0012 1370     		strb	r3, [r2]
 149:Generated_Source\PSoC5/count_time_to_transmit.c ****     #endif /* (count_time_to_transmit_UsingFixedFunction) */  
 150:Generated_Source\PSoC5/count_time_to_transmit.c ****         
 151:Generated_Source\PSoC5/count_time_to_transmit.c ****     /* Enable the counter from the control register  */
 152:Generated_Source\PSoC5/count_time_to_transmit.c ****     /* If Fixed Function then make sure Mode is set correctly */
 153:Generated_Source\PSoC5/count_time_to_transmit.c ****     /* else make sure reset is clear */
 154:Generated_Source\PSoC5/count_time_to_transmit.c ****     #if(!count_time_to_transmit_ControlRegRemoved || count_time_to_transmit_UsingFixedFunction)
 155:Generated_Source\PSoC5/count_time_to_transmit.c ****         count_time_to_transmit_CONTROL |= count_time_to_transmit_CTRL_ENABLE;                
  43              		.loc 1 155 0
  44 0014 02F66532 		addw	r2, r2, #2917
  45 0018 1378     		ldrb	r3, [r2]	@ zero_extendqisi2
  46 001a 43F00103 		orr	r3, r3, #1
  47 001e 1370     		strb	r3, [r2]
  48 0020 7047     		bx	lr
  49              	.L3:
  50 0022 00BF     		.align	2
  51              	.L2:
  52 0024 A3430040 		.word	1073759139
  53              		.cfi_endproc
  54              	.LFE1:
  55              		.size	count_time_to_transmit_Enable, .-count_time_to_transmit_Enable
  56              		.section	.text.count_time_to_transmit_Stop,"ax",%progbits
  57              		.align	2
  58              		.global	count_time_to_transmit_Stop
  59              		.thumb
  60              		.thumb_func
  61              		.type	count_time_to_transmit_Stop, %function
  62              	count_time_to_transmit_Stop:
  63              	.LFB3:
 156:Generated_Source\PSoC5/count_time_to_transmit.c ****     #endif /* (!count_time_to_transmit_ControlRegRemoved || count_time_to_transmit_UsingFixedFuncti
 157:Generated_Source\PSoC5/count_time_to_transmit.c ****     
 158:Generated_Source\PSoC5/count_time_to_transmit.c **** }
 159:Generated_Source\PSoC5/count_time_to_transmit.c **** 
 160:Generated_Source\PSoC5/count_time_to_transmit.c **** 
 161:Generated_Source\PSoC5/count_time_to_transmit.c **** /*******************************************************************************
 162:Generated_Source\PSoC5/count_time_to_transmit.c **** * Function Name: count_time_to_transmit_Start
 163:Generated_Source\PSoC5/count_time_to_transmit.c **** ********************************************************************************
 164:Generated_Source\PSoC5/count_time_to_transmit.c **** * Summary:
 165:Generated_Source\PSoC5/count_time_to_transmit.c **** *  Enables the counter for operation 
ARM GAS  C:\Users\Walaa\AppData\Local\Temp\ccwV3GkV.s 			page 5


 166:Generated_Source\PSoC5/count_time_to_transmit.c **** *
 167:Generated_Source\PSoC5/count_time_to_transmit.c **** * Parameters:  
 168:Generated_Source\PSoC5/count_time_to_transmit.c **** *  void  
 169:Generated_Source\PSoC5/count_time_to_transmit.c **** *
 170:Generated_Source\PSoC5/count_time_to_transmit.c **** * Return: 
 171:Generated_Source\PSoC5/count_time_to_transmit.c **** *  void
 172:Generated_Source\PSoC5/count_time_to_transmit.c **** *
 173:Generated_Source\PSoC5/count_time_to_transmit.c **** * Global variables:
 174:Generated_Source\PSoC5/count_time_to_transmit.c **** *  count_time_to_transmit_initVar: Is modified when this function is called for the  
 175:Generated_Source\PSoC5/count_time_to_transmit.c **** *   first time. Is used to ensure that initialization happens only once.
 176:Generated_Source\PSoC5/count_time_to_transmit.c **** *
 177:Generated_Source\PSoC5/count_time_to_transmit.c **** *******************************************************************************/
 178:Generated_Source\PSoC5/count_time_to_transmit.c **** void count_time_to_transmit_Start(void) 
 179:Generated_Source\PSoC5/count_time_to_transmit.c **** {
 180:Generated_Source\PSoC5/count_time_to_transmit.c ****     if(count_time_to_transmit_initVar == 0u)
 181:Generated_Source\PSoC5/count_time_to_transmit.c ****     {
 182:Generated_Source\PSoC5/count_time_to_transmit.c ****         count_time_to_transmit_Init();
 183:Generated_Source\PSoC5/count_time_to_transmit.c ****         
 184:Generated_Source\PSoC5/count_time_to_transmit.c ****         count_time_to_transmit_initVar = 1u; /* Clear this bit for Initialization */        
 185:Generated_Source\PSoC5/count_time_to_transmit.c ****     }
 186:Generated_Source\PSoC5/count_time_to_transmit.c ****     
 187:Generated_Source\PSoC5/count_time_to_transmit.c ****     /* Enable the Counter */
 188:Generated_Source\PSoC5/count_time_to_transmit.c ****     count_time_to_transmit_Enable();        
 189:Generated_Source\PSoC5/count_time_to_transmit.c **** }
 190:Generated_Source\PSoC5/count_time_to_transmit.c **** 
 191:Generated_Source\PSoC5/count_time_to_transmit.c **** 
 192:Generated_Source\PSoC5/count_time_to_transmit.c **** /*******************************************************************************
 193:Generated_Source\PSoC5/count_time_to_transmit.c **** * Function Name: count_time_to_transmit_Stop
 194:Generated_Source\PSoC5/count_time_to_transmit.c **** ********************************************************************************
 195:Generated_Source\PSoC5/count_time_to_transmit.c **** * Summary:
 196:Generated_Source\PSoC5/count_time_to_transmit.c **** * Halts the counter, but does not change any modes or disable interrupts.
 197:Generated_Source\PSoC5/count_time_to_transmit.c **** *
 198:Generated_Source\PSoC5/count_time_to_transmit.c **** * Parameters:  
 199:Generated_Source\PSoC5/count_time_to_transmit.c **** *  void  
 200:Generated_Source\PSoC5/count_time_to_transmit.c **** *
 201:Generated_Source\PSoC5/count_time_to_transmit.c **** * Return: 
 202:Generated_Source\PSoC5/count_time_to_transmit.c **** *  void
 203:Generated_Source\PSoC5/count_time_to_transmit.c **** *
 204:Generated_Source\PSoC5/count_time_to_transmit.c **** * Side Effects: If the Enable mode is set to Hardware only then this function
 205:Generated_Source\PSoC5/count_time_to_transmit.c **** *               has no effect on the operation of the counter.
 206:Generated_Source\PSoC5/count_time_to_transmit.c **** *
 207:Generated_Source\PSoC5/count_time_to_transmit.c **** *******************************************************************************/
 208:Generated_Source\PSoC5/count_time_to_transmit.c **** void count_time_to_transmit_Stop(void) 
 209:Generated_Source\PSoC5/count_time_to_transmit.c **** {
  64              		.loc 1 209 0
  65              		.cfi_startproc
  66              		@ args = 0, pretend = 0, frame = 0
  67              		@ frame_needed = 0, uses_anonymous_args = 0
  68              		@ link register save eliminated.
 210:Generated_Source\PSoC5/count_time_to_transmit.c ****     /* Disable Counter */
 211:Generated_Source\PSoC5/count_time_to_transmit.c ****     #if(!count_time_to_transmit_ControlRegRemoved || count_time_to_transmit_UsingFixedFunction)
 212:Generated_Source\PSoC5/count_time_to_transmit.c ****         count_time_to_transmit_CONTROL &= ((uint8)(~count_time_to_transmit_CTRL_ENABLE));        
  69              		.loc 1 212 0
  70 0000 084A     		ldr	r2, .L5
  71 0002 1378     		ldrb	r3, [r2]	@ zero_extendqisi2
  72 0004 03F0FE03 		and	r3, r3, #254
  73 0008 1370     		strb	r3, [r2]
ARM GAS  C:\Users\Walaa\AppData\Local\Temp\ccwV3GkV.s 			page 6


 213:Generated_Source\PSoC5/count_time_to_transmit.c ****     #endif /* (!count_time_to_transmit_ControlRegRemoved || count_time_to_transmit_UsingFixedFuncti
 214:Generated_Source\PSoC5/count_time_to_transmit.c ****     
 215:Generated_Source\PSoC5/count_time_to_transmit.c ****     /* Globally disable the Fixed Function Block chosen */
 216:Generated_Source\PSoC5/count_time_to_transmit.c ****     #if (count_time_to_transmit_UsingFixedFunction)
 217:Generated_Source\PSoC5/count_time_to_transmit.c ****         count_time_to_transmit_GLOBAL_ENABLE &= ((uint8)(~count_time_to_transmit_BLOCK_EN_MASK));
  74              		.loc 1 217 0
  75 000a A2F67532 		subw	r2, r2, #2933
  76 000e 1378     		ldrb	r3, [r2]	@ zero_extendqisi2
  77 0010 03F0FB03 		and	r3, r3, #251
  78 0014 1370     		strb	r3, [r2]
 218:Generated_Source\PSoC5/count_time_to_transmit.c ****         count_time_to_transmit_GLOBAL_STBY_ENABLE &= ((uint8)(~count_time_to_transmit_BLOCK_STBY_EN
  79              		.loc 1 218 0
  80 0016 1032     		adds	r2, r2, #16
  81 0018 1378     		ldrb	r3, [r2]	@ zero_extendqisi2
  82 001a 03F0FB03 		and	r3, r3, #251
  83 001e 1370     		strb	r3, [r2]
  84 0020 7047     		bx	lr
  85              	.L6:
  86 0022 00BF     		.align	2
  87              	.L5:
  88 0024 184F0040 		.word	1073762072
  89              		.cfi_endproc
  90              	.LFE3:
  91              		.size	count_time_to_transmit_Stop, .-count_time_to_transmit_Stop
  92              		.section	.text.count_time_to_transmit_SetInterruptMode,"ax",%progbits
  93              		.align	2
  94              		.global	count_time_to_transmit_SetInterruptMode
  95              		.thumb
  96              		.thumb_func
  97              		.type	count_time_to_transmit_SetInterruptMode, %function
  98              	count_time_to_transmit_SetInterruptMode:
  99              	.LFB4:
 219:Generated_Source\PSoC5/count_time_to_transmit.c ****     #endif /* (count_time_to_transmit_UsingFixedFunction) */
 220:Generated_Source\PSoC5/count_time_to_transmit.c **** }
 221:Generated_Source\PSoC5/count_time_to_transmit.c **** 
 222:Generated_Source\PSoC5/count_time_to_transmit.c **** 
 223:Generated_Source\PSoC5/count_time_to_transmit.c **** /*******************************************************************************
 224:Generated_Source\PSoC5/count_time_to_transmit.c **** * Function Name: count_time_to_transmit_SetInterruptMode
 225:Generated_Source\PSoC5/count_time_to_transmit.c **** ********************************************************************************
 226:Generated_Source\PSoC5/count_time_to_transmit.c **** * Summary:
 227:Generated_Source\PSoC5/count_time_to_transmit.c **** * Configures which interrupt sources are enabled to generate the final interrupt
 228:Generated_Source\PSoC5/count_time_to_transmit.c **** *
 229:Generated_Source\PSoC5/count_time_to_transmit.c **** * Parameters:  
 230:Generated_Source\PSoC5/count_time_to_transmit.c **** *  InterruptsMask: This parameter is an or'd collection of the status bits
 231:Generated_Source\PSoC5/count_time_to_transmit.c **** *                   which will be allowed to generate the counters interrupt.   
 232:Generated_Source\PSoC5/count_time_to_transmit.c **** *
 233:Generated_Source\PSoC5/count_time_to_transmit.c **** * Return: 
 234:Generated_Source\PSoC5/count_time_to_transmit.c **** *  void
 235:Generated_Source\PSoC5/count_time_to_transmit.c **** *
 236:Generated_Source\PSoC5/count_time_to_transmit.c **** *******************************************************************************/
 237:Generated_Source\PSoC5/count_time_to_transmit.c **** void count_time_to_transmit_SetInterruptMode(uint8 interruptsMask) 
 238:Generated_Source\PSoC5/count_time_to_transmit.c **** {
 100              		.loc 1 238 0
 101              		.cfi_startproc
 102              		@ args = 0, pretend = 0, frame = 0
 103              		@ frame_needed = 0, uses_anonymous_args = 0
 104              		@ link register save eliminated.
ARM GAS  C:\Users\Walaa\AppData\Local\Temp\ccwV3GkV.s 			page 7


 105              	.LVL0:
 239:Generated_Source\PSoC5/count_time_to_transmit.c ****     count_time_to_transmit_STATUS_MASK = interruptsMask;
 106              		.loc 1 239 0
 107 0000 014B     		ldr	r3, .L8
 108 0002 1870     		strb	r0, [r3]
 109 0004 7047     		bx	lr
 110              	.L9:
 111 0006 00BF     		.align	2
 112              	.L8:
 113 0008 1B4F0040 		.word	1073762075
 114              		.cfi_endproc
 115              	.LFE4:
 116              		.size	count_time_to_transmit_SetInterruptMode, .-count_time_to_transmit_SetInterruptMode
 117              		.section	.text.count_time_to_transmit_ReadStatusRegister,"ax",%progbits
 118              		.align	2
 119              		.global	count_time_to_transmit_ReadStatusRegister
 120              		.thumb
 121              		.thumb_func
 122              		.type	count_time_to_transmit_ReadStatusRegister, %function
 123              	count_time_to_transmit_ReadStatusRegister:
 124              	.LFB5:
 240:Generated_Source\PSoC5/count_time_to_transmit.c **** }
 241:Generated_Source\PSoC5/count_time_to_transmit.c **** 
 242:Generated_Source\PSoC5/count_time_to_transmit.c **** 
 243:Generated_Source\PSoC5/count_time_to_transmit.c **** /*******************************************************************************
 244:Generated_Source\PSoC5/count_time_to_transmit.c **** * Function Name: count_time_to_transmit_ReadStatusRegister
 245:Generated_Source\PSoC5/count_time_to_transmit.c **** ********************************************************************************
 246:Generated_Source\PSoC5/count_time_to_transmit.c **** * Summary:
 247:Generated_Source\PSoC5/count_time_to_transmit.c **** *   Reads the status register and returns it's state. This function should use
 248:Generated_Source\PSoC5/count_time_to_transmit.c **** *       defined types for the bit-field information as the bits in this
 249:Generated_Source\PSoC5/count_time_to_transmit.c **** *       register may be permuteable.
 250:Generated_Source\PSoC5/count_time_to_transmit.c **** *
 251:Generated_Source\PSoC5/count_time_to_transmit.c **** * Parameters:  
 252:Generated_Source\PSoC5/count_time_to_transmit.c **** *  void
 253:Generated_Source\PSoC5/count_time_to_transmit.c **** *
 254:Generated_Source\PSoC5/count_time_to_transmit.c **** * Return: 
 255:Generated_Source\PSoC5/count_time_to_transmit.c **** *  (uint8) The contents of the status register
 256:Generated_Source\PSoC5/count_time_to_transmit.c **** *
 257:Generated_Source\PSoC5/count_time_to_transmit.c **** * Side Effects:
 258:Generated_Source\PSoC5/count_time_to_transmit.c **** *   Status register bits may be clear on read. 
 259:Generated_Source\PSoC5/count_time_to_transmit.c **** *
 260:Generated_Source\PSoC5/count_time_to_transmit.c **** *******************************************************************************/
 261:Generated_Source\PSoC5/count_time_to_transmit.c **** uint8   count_time_to_transmit_ReadStatusRegister(void) 
 262:Generated_Source\PSoC5/count_time_to_transmit.c **** {
 125              		.loc 1 262 0
 126              		.cfi_startproc
 127              		@ args = 0, pretend = 0, frame = 0
 128              		@ frame_needed = 0, uses_anonymous_args = 0
 129              		@ link register save eliminated.
 263:Generated_Source\PSoC5/count_time_to_transmit.c ****     return count_time_to_transmit_STATUS;
 130              		.loc 1 263 0
 131 0000 014B     		ldr	r3, .L11
 132 0002 1878     		ldrb	r0, [r3]	@ zero_extendqisi2
 264:Generated_Source\PSoC5/count_time_to_transmit.c **** }
 133              		.loc 1 264 0
 134 0004 7047     		bx	lr
 135              	.L12:
ARM GAS  C:\Users\Walaa\AppData\Local\Temp\ccwV3GkV.s 			page 8


 136 0006 00BF     		.align	2
 137              	.L11:
 138 0008 1B4F0040 		.word	1073762075
 139              		.cfi_endproc
 140              	.LFE5:
 141              		.size	count_time_to_transmit_ReadStatusRegister, .-count_time_to_transmit_ReadStatusRegister
 142              		.section	.text.count_time_to_transmit_ReadControlRegister,"ax",%progbits
 143              		.align	2
 144              		.global	count_time_to_transmit_ReadControlRegister
 145              		.thumb
 146              		.thumb_func
 147              		.type	count_time_to_transmit_ReadControlRegister, %function
 148              	count_time_to_transmit_ReadControlRegister:
 149              	.LFB6:
 265:Generated_Source\PSoC5/count_time_to_transmit.c **** 
 266:Generated_Source\PSoC5/count_time_to_transmit.c **** 
 267:Generated_Source\PSoC5/count_time_to_transmit.c **** #if(!count_time_to_transmit_ControlRegRemoved)
 268:Generated_Source\PSoC5/count_time_to_transmit.c **** /*******************************************************************************
 269:Generated_Source\PSoC5/count_time_to_transmit.c **** * Function Name: count_time_to_transmit_ReadControlRegister
 270:Generated_Source\PSoC5/count_time_to_transmit.c **** ********************************************************************************
 271:Generated_Source\PSoC5/count_time_to_transmit.c **** * Summary:
 272:Generated_Source\PSoC5/count_time_to_transmit.c **** *   Reads the control register and returns it's state. This function should use
 273:Generated_Source\PSoC5/count_time_to_transmit.c **** *       defined types for the bit-field information as the bits in this
 274:Generated_Source\PSoC5/count_time_to_transmit.c **** *       register may be permuteable.
 275:Generated_Source\PSoC5/count_time_to_transmit.c **** *
 276:Generated_Source\PSoC5/count_time_to_transmit.c **** * Parameters:  
 277:Generated_Source\PSoC5/count_time_to_transmit.c **** *  void
 278:Generated_Source\PSoC5/count_time_to_transmit.c **** *
 279:Generated_Source\PSoC5/count_time_to_transmit.c **** * Return: 
 280:Generated_Source\PSoC5/count_time_to_transmit.c **** *  (uint8) The contents of the control register
 281:Generated_Source\PSoC5/count_time_to_transmit.c **** *
 282:Generated_Source\PSoC5/count_time_to_transmit.c **** *******************************************************************************/
 283:Generated_Source\PSoC5/count_time_to_transmit.c **** uint8   count_time_to_transmit_ReadControlRegister(void) 
 284:Generated_Source\PSoC5/count_time_to_transmit.c **** {
 150              		.loc 1 284 0
 151              		.cfi_startproc
 152              		@ args = 0, pretend = 0, frame = 0
 153              		@ frame_needed = 0, uses_anonymous_args = 0
 154              		@ link register save eliminated.
 285:Generated_Source\PSoC5/count_time_to_transmit.c ****     return count_time_to_transmit_CONTROL;
 155              		.loc 1 285 0
 156 0000 014B     		ldr	r3, .L14
 157 0002 1878     		ldrb	r0, [r3]	@ zero_extendqisi2
 286:Generated_Source\PSoC5/count_time_to_transmit.c **** }
 158              		.loc 1 286 0
 159 0004 7047     		bx	lr
 160              	.L15:
 161 0006 00BF     		.align	2
 162              	.L14:
 163 0008 184F0040 		.word	1073762072
 164              		.cfi_endproc
 165              	.LFE6:
 166              		.size	count_time_to_transmit_ReadControlRegister, .-count_time_to_transmit_ReadControlRegister
 167              		.section	.text.count_time_to_transmit_WriteControlRegister,"ax",%progbits
 168              		.align	2
 169              		.global	count_time_to_transmit_WriteControlRegister
 170              		.thumb
ARM GAS  C:\Users\Walaa\AppData\Local\Temp\ccwV3GkV.s 			page 9


 171              		.thumb_func
 172              		.type	count_time_to_transmit_WriteControlRegister, %function
 173              	count_time_to_transmit_WriteControlRegister:
 174              	.LFB7:
 287:Generated_Source\PSoC5/count_time_to_transmit.c **** 
 288:Generated_Source\PSoC5/count_time_to_transmit.c **** 
 289:Generated_Source\PSoC5/count_time_to_transmit.c **** /*******************************************************************************
 290:Generated_Source\PSoC5/count_time_to_transmit.c **** * Function Name: count_time_to_transmit_WriteControlRegister
 291:Generated_Source\PSoC5/count_time_to_transmit.c **** ********************************************************************************
 292:Generated_Source\PSoC5/count_time_to_transmit.c **** * Summary:
 293:Generated_Source\PSoC5/count_time_to_transmit.c **** *   Sets the bit-field of the control register.  This function should use
 294:Generated_Source\PSoC5/count_time_to_transmit.c **** *       defined types for the bit-field information as the bits in this
 295:Generated_Source\PSoC5/count_time_to_transmit.c **** *       register may be permuteable.
 296:Generated_Source\PSoC5/count_time_to_transmit.c **** *
 297:Generated_Source\PSoC5/count_time_to_transmit.c **** * Parameters:  
 298:Generated_Source\PSoC5/count_time_to_transmit.c **** *  void
 299:Generated_Source\PSoC5/count_time_to_transmit.c **** *
 300:Generated_Source\PSoC5/count_time_to_transmit.c **** * Return: 
 301:Generated_Source\PSoC5/count_time_to_transmit.c **** *  (uint8) The contents of the control register
 302:Generated_Source\PSoC5/count_time_to_transmit.c **** *
 303:Generated_Source\PSoC5/count_time_to_transmit.c **** *******************************************************************************/
 304:Generated_Source\PSoC5/count_time_to_transmit.c **** void    count_time_to_transmit_WriteControlRegister(uint8 control) 
 305:Generated_Source\PSoC5/count_time_to_transmit.c **** {
 175              		.loc 1 305 0
 176              		.cfi_startproc
 177              		@ args = 0, pretend = 0, frame = 0
 178              		@ frame_needed = 0, uses_anonymous_args = 0
 179              		@ link register save eliminated.
 180              	.LVL1:
 306:Generated_Source\PSoC5/count_time_to_transmit.c ****     count_time_to_transmit_CONTROL = control;
 181              		.loc 1 306 0
 182 0000 014B     		ldr	r3, .L17
 183 0002 1870     		strb	r0, [r3]
 184 0004 7047     		bx	lr
 185              	.L18:
 186 0006 00BF     		.align	2
 187              	.L17:
 188 0008 184F0040 		.word	1073762072
 189              		.cfi_endproc
 190              	.LFE7:
 191              		.size	count_time_to_transmit_WriteControlRegister, .-count_time_to_transmit_WriteControlRegister
 192              		.section	.text.count_time_to_transmit_WriteCounter,"ax",%progbits
 193              		.align	2
 194              		.global	count_time_to_transmit_WriteCounter
 195              		.thumb
 196              		.thumb_func
 197              		.type	count_time_to_transmit_WriteCounter, %function
 198              	count_time_to_transmit_WriteCounter:
 199              	.LFB8:
 307:Generated_Source\PSoC5/count_time_to_transmit.c **** }
 308:Generated_Source\PSoC5/count_time_to_transmit.c **** 
 309:Generated_Source\PSoC5/count_time_to_transmit.c **** #endif  /* (!count_time_to_transmit_ControlRegRemoved) */
 310:Generated_Source\PSoC5/count_time_to_transmit.c **** 
 311:Generated_Source\PSoC5/count_time_to_transmit.c **** 
 312:Generated_Source\PSoC5/count_time_to_transmit.c **** #if (!(count_time_to_transmit_UsingFixedFunction && (CY_PSOC5A)))
 313:Generated_Source\PSoC5/count_time_to_transmit.c **** /*******************************************************************************
 314:Generated_Source\PSoC5/count_time_to_transmit.c **** * Function Name: count_time_to_transmit_WriteCounter
ARM GAS  C:\Users\Walaa\AppData\Local\Temp\ccwV3GkV.s 			page 10


 315:Generated_Source\PSoC5/count_time_to_transmit.c **** ********************************************************************************
 316:Generated_Source\PSoC5/count_time_to_transmit.c **** * Summary:
 317:Generated_Source\PSoC5/count_time_to_transmit.c **** *   This funtion is used to set the counter to a specific value
 318:Generated_Source\PSoC5/count_time_to_transmit.c **** *
 319:Generated_Source\PSoC5/count_time_to_transmit.c **** * Parameters:  
 320:Generated_Source\PSoC5/count_time_to_transmit.c **** *  counter:  New counter value. 
 321:Generated_Source\PSoC5/count_time_to_transmit.c **** *
 322:Generated_Source\PSoC5/count_time_to_transmit.c **** * Return: 
 323:Generated_Source\PSoC5/count_time_to_transmit.c **** *  void 
 324:Generated_Source\PSoC5/count_time_to_transmit.c **** *
 325:Generated_Source\PSoC5/count_time_to_transmit.c **** *******************************************************************************/
 326:Generated_Source\PSoC5/count_time_to_transmit.c **** void count_time_to_transmit_WriteCounter(uint16 counter) \
 327:Generated_Source\PSoC5/count_time_to_transmit.c ****                                    
 328:Generated_Source\PSoC5/count_time_to_transmit.c **** {
 200              		.loc 1 328 0
 201              		.cfi_startproc
 202              		@ args = 0, pretend = 0, frame = 0
 203              		@ frame_needed = 0, uses_anonymous_args = 0
 204              	.LVL2:
 205 0000 10B5     		push	{r4, lr}
 206              		.cfi_def_cfa_offset 8
 207              		.cfi_offset 4, -8
 208              		.cfi_offset 14, -4
 209 0002 0446     		mov	r4, r0
 329:Generated_Source\PSoC5/count_time_to_transmit.c ****     #if(count_time_to_transmit_UsingFixedFunction)
 330:Generated_Source\PSoC5/count_time_to_transmit.c ****         /* assert if block is already enabled */
 331:Generated_Source\PSoC5/count_time_to_transmit.c ****         CYASSERT (0u == (count_time_to_transmit_GLOBAL_ENABLE & count_time_to_transmit_BLOCK_EN_MAS
 210              		.loc 1 331 0
 211 0004 094B     		ldr	r3, .L22
 212 0006 1B78     		ldrb	r3, [r3]	@ zero_extendqisi2
 213 0008 13F0040F 		tst	r3, #4
 214 000c 02D0     		beq	.L20
 215              		.loc 1 331 0 is_stmt 0 discriminator 1
 216 000e 0020     		movs	r0, #0
 217              	.LVL3:
 218 0010 FFF7FEFF 		bl	CyHalt
 219              	.LVL4:
 220              	.L20:
 332:Generated_Source\PSoC5/count_time_to_transmit.c ****         /* If block is disabled, enable it and then write the counter */
 333:Generated_Source\PSoC5/count_time_to_transmit.c ****         count_time_to_transmit_GLOBAL_ENABLE |= count_time_to_transmit_BLOCK_EN_MASK;
 221              		.loc 1 333 0 is_stmt 1
 222 0014 054B     		ldr	r3, .L22
 223 0016 1A78     		ldrb	r2, [r3]	@ zero_extendqisi2
 224 0018 42F00402 		orr	r2, r2, #4
 225 001c 1A70     		strb	r2, [r3]
 334:Generated_Source\PSoC5/count_time_to_transmit.c ****         CY_SET_REG16(count_time_to_transmit_COUNTER_LSB_PTR, (uint16)counter);
 226              		.loc 1 334 0
 227 001e 044A     		ldr	r2, .L22+4
 228 0020 1480     		strh	r4, [r2]	@ movhi
 335:Generated_Source\PSoC5/count_time_to_transmit.c ****         count_time_to_transmit_GLOBAL_ENABLE &= ((uint8)(~count_time_to_transmit_BLOCK_EN_MASK));
 229              		.loc 1 335 0
 230 0022 1A78     		ldrb	r2, [r3]	@ zero_extendqisi2
 231 0024 02F0FB02 		and	r2, r2, #251
 232 0028 1A70     		strb	r2, [r3]
 233 002a 10BD     		pop	{r4, pc}
 234              	.L23:
 235              		.align	2
ARM GAS  C:\Users\Walaa\AppData\Local\Temp\ccwV3GkV.s 			page 11


 236              	.L22:
 237 002c A3430040 		.word	1073759139
 238 0030 1E4F0040 		.word	1073762078
 239              		.cfi_endproc
 240              	.LFE8:
 241              		.size	count_time_to_transmit_WriteCounter, .-count_time_to_transmit_WriteCounter
 242              		.section	.text.count_time_to_transmit_ReadCounter,"ax",%progbits
 243              		.align	2
 244              		.global	count_time_to_transmit_ReadCounter
 245              		.thumb
 246              		.thumb_func
 247              		.type	count_time_to_transmit_ReadCounter, %function
 248              	count_time_to_transmit_ReadCounter:
 249              	.LFB9:
 336:Generated_Source\PSoC5/count_time_to_transmit.c ****     #else
 337:Generated_Source\PSoC5/count_time_to_transmit.c ****         CY_SET_REG16(count_time_to_transmit_COUNTER_LSB_PTR, counter);
 338:Generated_Source\PSoC5/count_time_to_transmit.c ****     #endif /* (count_time_to_transmit_UsingFixedFunction) */
 339:Generated_Source\PSoC5/count_time_to_transmit.c **** }
 340:Generated_Source\PSoC5/count_time_to_transmit.c **** #endif /* (!(count_time_to_transmit_UsingFixedFunction && (CY_PSOC5A))) */
 341:Generated_Source\PSoC5/count_time_to_transmit.c **** 
 342:Generated_Source\PSoC5/count_time_to_transmit.c **** 
 343:Generated_Source\PSoC5/count_time_to_transmit.c **** /*******************************************************************************
 344:Generated_Source\PSoC5/count_time_to_transmit.c **** * Function Name: count_time_to_transmit_ReadCounter
 345:Generated_Source\PSoC5/count_time_to_transmit.c **** ********************************************************************************
 346:Generated_Source\PSoC5/count_time_to_transmit.c **** * Summary:
 347:Generated_Source\PSoC5/count_time_to_transmit.c **** * Returns the current value of the counter.  It doesn't matter
 348:Generated_Source\PSoC5/count_time_to_transmit.c **** * if the counter is enabled or running.
 349:Generated_Source\PSoC5/count_time_to_transmit.c **** *
 350:Generated_Source\PSoC5/count_time_to_transmit.c **** * Parameters:  
 351:Generated_Source\PSoC5/count_time_to_transmit.c **** *  void:  
 352:Generated_Source\PSoC5/count_time_to_transmit.c **** *
 353:Generated_Source\PSoC5/count_time_to_transmit.c **** * Return: 
 354:Generated_Source\PSoC5/count_time_to_transmit.c **** *  (uint16) The present value of the counter.
 355:Generated_Source\PSoC5/count_time_to_transmit.c **** *
 356:Generated_Source\PSoC5/count_time_to_transmit.c **** *******************************************************************************/
 357:Generated_Source\PSoC5/count_time_to_transmit.c **** uint16 count_time_to_transmit_ReadCounter(void) 
 358:Generated_Source\PSoC5/count_time_to_transmit.c **** {
 250              		.loc 1 358 0
 251              		.cfi_startproc
 252              		@ args = 0, pretend = 0, frame = 0
 253              		@ frame_needed = 0, uses_anonymous_args = 0
 254              		@ link register save eliminated.
 359:Generated_Source\PSoC5/count_time_to_transmit.c ****     /* Force capture by reading Accumulator */
 360:Generated_Source\PSoC5/count_time_to_transmit.c ****     /* Must first do a software capture to be able to read the counter */
 361:Generated_Source\PSoC5/count_time_to_transmit.c ****     /* It is up to the user code to make sure there isn't already captured data in the FIFO */
 362:Generated_Source\PSoC5/count_time_to_transmit.c ****     #if(count_time_to_transmit_UsingFixedFunction)
 363:Generated_Source\PSoC5/count_time_to_transmit.c **** 		(void)CY_GET_REG16(count_time_to_transmit_COUNTER_LSB_PTR);
 255              		.loc 1 363 0
 256 0000 024B     		ldr	r3, .L25
 257 0002 1B88     		ldrh	r3, [r3]
 364:Generated_Source\PSoC5/count_time_to_transmit.c **** 	#else
 365:Generated_Source\PSoC5/count_time_to_transmit.c **** 		(void)CY_GET_REG8(count_time_to_transmit_COUNTER_LSB_PTR_8BIT);
 366:Generated_Source\PSoC5/count_time_to_transmit.c **** 	#endif/* (count_time_to_transmit_UsingFixedFunction) */
 367:Generated_Source\PSoC5/count_time_to_transmit.c ****     
 368:Generated_Source\PSoC5/count_time_to_transmit.c ****     /* Read the data from the FIFO (or capture register for Fixed Function)*/
 369:Generated_Source\PSoC5/count_time_to_transmit.c ****     #if(count_time_to_transmit_UsingFixedFunction)
 370:Generated_Source\PSoC5/count_time_to_transmit.c ****         return ((uint16)CY_GET_REG16(count_time_to_transmit_STATICCOUNT_LSB_PTR));
ARM GAS  C:\Users\Walaa\AppData\Local\Temp\ccwV3GkV.s 			page 12


 258              		.loc 1 370 0
 259 0004 024B     		ldr	r3, .L25+4
 260 0006 1888     		ldrh	r0, [r3]
 371:Generated_Source\PSoC5/count_time_to_transmit.c ****     #else
 372:Generated_Source\PSoC5/count_time_to_transmit.c ****         return (CY_GET_REG16(count_time_to_transmit_STATICCOUNT_LSB_PTR));
 373:Generated_Source\PSoC5/count_time_to_transmit.c ****     #endif /* (count_time_to_transmit_UsingFixedFunction) */
 374:Generated_Source\PSoC5/count_time_to_transmit.c **** }
 261              		.loc 1 374 0
 262 0008 80B2     		uxth	r0, r0
 263 000a 7047     		bx	lr
 264              	.L26:
 265              		.align	2
 266              	.L25:
 267 000c 1E4F0040 		.word	1073762078
 268 0010 204F0040 		.word	1073762080
 269              		.cfi_endproc
 270              	.LFE9:
 271              		.size	count_time_to_transmit_ReadCounter, .-count_time_to_transmit_ReadCounter
 272              		.section	.text.count_time_to_transmit_ReadCapture,"ax",%progbits
 273              		.align	2
 274              		.global	count_time_to_transmit_ReadCapture
 275              		.thumb
 276              		.thumb_func
 277              		.type	count_time_to_transmit_ReadCapture, %function
 278              	count_time_to_transmit_ReadCapture:
 279              	.LFB10:
 375:Generated_Source\PSoC5/count_time_to_transmit.c **** 
 376:Generated_Source\PSoC5/count_time_to_transmit.c **** 
 377:Generated_Source\PSoC5/count_time_to_transmit.c **** /*******************************************************************************
 378:Generated_Source\PSoC5/count_time_to_transmit.c **** * Function Name: count_time_to_transmit_ReadCapture
 379:Generated_Source\PSoC5/count_time_to_transmit.c **** ********************************************************************************
 380:Generated_Source\PSoC5/count_time_to_transmit.c **** * Summary:
 381:Generated_Source\PSoC5/count_time_to_transmit.c **** *   This function returns the last value captured.
 382:Generated_Source\PSoC5/count_time_to_transmit.c **** *
 383:Generated_Source\PSoC5/count_time_to_transmit.c **** * Parameters:  
 384:Generated_Source\PSoC5/count_time_to_transmit.c **** *  void
 385:Generated_Source\PSoC5/count_time_to_transmit.c **** *
 386:Generated_Source\PSoC5/count_time_to_transmit.c **** * Return: 
 387:Generated_Source\PSoC5/count_time_to_transmit.c **** *  (uint16) Present Capture value.
 388:Generated_Source\PSoC5/count_time_to_transmit.c **** *
 389:Generated_Source\PSoC5/count_time_to_transmit.c **** *******************************************************************************/
 390:Generated_Source\PSoC5/count_time_to_transmit.c **** uint16 count_time_to_transmit_ReadCapture(void) 
 391:Generated_Source\PSoC5/count_time_to_transmit.c **** {
 280              		.loc 1 391 0
 281              		.cfi_startproc
 282              		@ args = 0, pretend = 0, frame = 0
 283              		@ frame_needed = 0, uses_anonymous_args = 0
 284              		@ link register save eliminated.
 392:Generated_Source\PSoC5/count_time_to_transmit.c ****     #if(count_time_to_transmit_UsingFixedFunction)
 393:Generated_Source\PSoC5/count_time_to_transmit.c ****         return ((uint16)CY_GET_REG16(count_time_to_transmit_STATICCOUNT_LSB_PTR));
 285              		.loc 1 393 0
 286 0000 014B     		ldr	r3, .L28
 287 0002 1888     		ldrh	r0, [r3]
 394:Generated_Source\PSoC5/count_time_to_transmit.c ****     #else
 395:Generated_Source\PSoC5/count_time_to_transmit.c ****         return (CY_GET_REG16(count_time_to_transmit_STATICCOUNT_LSB_PTR));
 396:Generated_Source\PSoC5/count_time_to_transmit.c ****     #endif /* (count_time_to_transmit_UsingFixedFunction) */
 397:Generated_Source\PSoC5/count_time_to_transmit.c **** }
ARM GAS  C:\Users\Walaa\AppData\Local\Temp\ccwV3GkV.s 			page 13


 288              		.loc 1 397 0
 289 0004 80B2     		uxth	r0, r0
 290 0006 7047     		bx	lr
 291              	.L29:
 292              		.align	2
 293              	.L28:
 294 0008 204F0040 		.word	1073762080
 295              		.cfi_endproc
 296              	.LFE10:
 297              		.size	count_time_to_transmit_ReadCapture, .-count_time_to_transmit_ReadCapture
 298              		.section	.text.count_time_to_transmit_WritePeriod,"ax",%progbits
 299              		.align	2
 300              		.global	count_time_to_transmit_WritePeriod
 301              		.thumb
 302              		.thumb_func
 303              		.type	count_time_to_transmit_WritePeriod, %function
 304              	count_time_to_transmit_WritePeriod:
 305              	.LFB11:
 398:Generated_Source\PSoC5/count_time_to_transmit.c **** 
 399:Generated_Source\PSoC5/count_time_to_transmit.c **** 
 400:Generated_Source\PSoC5/count_time_to_transmit.c **** /*******************************************************************************
 401:Generated_Source\PSoC5/count_time_to_transmit.c **** * Function Name: count_time_to_transmit_WritePeriod
 402:Generated_Source\PSoC5/count_time_to_transmit.c **** ********************************************************************************
 403:Generated_Source\PSoC5/count_time_to_transmit.c **** * Summary:
 404:Generated_Source\PSoC5/count_time_to_transmit.c **** * Changes the period of the counter.  The new period 
 405:Generated_Source\PSoC5/count_time_to_transmit.c **** * will be loaded the next time terminal count is detected.
 406:Generated_Source\PSoC5/count_time_to_transmit.c **** *
 407:Generated_Source\PSoC5/count_time_to_transmit.c **** * Parameters:  
 408:Generated_Source\PSoC5/count_time_to_transmit.c **** *  period: (uint16) A value of 0 will result in
 409:Generated_Source\PSoC5/count_time_to_transmit.c **** *         the counter remaining at zero.  
 410:Generated_Source\PSoC5/count_time_to_transmit.c **** *
 411:Generated_Source\PSoC5/count_time_to_transmit.c **** * Return: 
 412:Generated_Source\PSoC5/count_time_to_transmit.c **** *  void
 413:Generated_Source\PSoC5/count_time_to_transmit.c **** *
 414:Generated_Source\PSoC5/count_time_to_transmit.c **** *******************************************************************************/
 415:Generated_Source\PSoC5/count_time_to_transmit.c **** void count_time_to_transmit_WritePeriod(uint16 period) 
 416:Generated_Source\PSoC5/count_time_to_transmit.c **** {
 306              		.loc 1 416 0
 307              		.cfi_startproc
 308              		@ args = 0, pretend = 0, frame = 0
 309              		@ frame_needed = 0, uses_anonymous_args = 0
 310              		@ link register save eliminated.
 311              	.LVL5:
 417:Generated_Source\PSoC5/count_time_to_transmit.c ****     #if(count_time_to_transmit_UsingFixedFunction)
 418:Generated_Source\PSoC5/count_time_to_transmit.c ****         CY_SET_REG16(count_time_to_transmit_PERIOD_LSB_PTR,(uint16)period);
 312              		.loc 1 418 0
 313 0000 014B     		ldr	r3, .L31
 314 0002 1880     		strh	r0, [r3]	@ movhi
 315 0004 7047     		bx	lr
 316              	.L32:
 317 0006 00BF     		.align	2
 318              	.L31:
 319 0008 1C4F0040 		.word	1073762076
 320              		.cfi_endproc
 321              	.LFE11:
 322              		.size	count_time_to_transmit_WritePeriod, .-count_time_to_transmit_WritePeriod
 323              		.section	.text.count_time_to_transmit_Init,"ax",%progbits
ARM GAS  C:\Users\Walaa\AppData\Local\Temp\ccwV3GkV.s 			page 14


 324              		.align	2
 325              		.global	count_time_to_transmit_Init
 326              		.thumb
 327              		.thumb_func
 328              		.type	count_time_to_transmit_Init, %function
 329              	count_time_to_transmit_Init:
 330              	.LFB0:
  38:Generated_Source\PSoC5/count_time_to_transmit.c ****         #if (!count_time_to_transmit_UsingFixedFunction && !count_time_to_transmit_ControlRegRemove
 331              		.loc 1 38 0
 332              		.cfi_startproc
 333              		@ args = 0, pretend = 0, frame = 0
 334              		@ frame_needed = 0, uses_anonymous_args = 0
 335 0000 08B5     		push	{r3, lr}
 336              		.cfi_def_cfa_offset 8
 337              		.cfi_offset 3, -8
 338              		.cfi_offset 14, -4
  50:Generated_Source\PSoC5/count_time_to_transmit.c ****             
 339              		.loc 1 50 0
 340 0002 184B     		ldr	r3, .L35
 341 0004 1A78     		ldrb	r2, [r3]	@ zero_extendqisi2
 342 0006 02F00102 		and	r2, r2, #1
 343 000a 1A70     		strb	r2, [r3]
  57:Generated_Source\PSoC5/count_time_to_transmit.c ****             #endif /* (CY_PSOC3 || CY_PSOC5LP) */
 344              		.loc 1 57 0
 345 000c 1649     		ldr	r1, .L35+4
 346 000e 0A78     		ldrb	r2, [r1]	@ zero_extendqisi2
 347 0010 02F0FC02 		and	r2, r2, #252
 348 0014 0A70     		strb	r2, [r1]
  62:Generated_Source\PSoC5/count_time_to_transmit.c ****             #endif /* (count_time_to_transmit_RunModeUsed != 0x0u) */
 349              		.loc 1 62 0
 350 0016 1A78     		ldrb	r2, [r3]	@ zero_extendqisi2
 351 0018 42F00402 		orr	r2, r2, #4
 352 001c 1A70     		strb	r2, [r3]
  66:Generated_Source\PSoC5/count_time_to_transmit.c ****             
 353              		.loc 1 66 0
 354 001e 134A     		ldr	r2, .L35+8
 355 0020 1378     		ldrb	r3, [r2]	@ zero_extendqisi2
 356 0022 43F00103 		orr	r3, r3, #1
 357 0026 1370     		strb	r3, [r2]
  69:Generated_Source\PSoC5/count_time_to_transmit.c ****             count_time_to_transmit_RT1 |= count_time_to_transmit_SYNC;     
 358              		.loc 1 69 0
 359 0028 114B     		ldr	r3, .L35+12
 360 002a 1A78     		ldrb	r2, [r3]	@ zero_extendqisi2
 361 002c 02F0CF02 		and	r2, r2, #207
 362 0030 1A70     		strb	r2, [r3]
  70:Generated_Source\PSoC5/count_time_to_transmit.c ****                     
 363              		.loc 1 70 0
 364 0032 1A78     		ldrb	r2, [r3]	@ zero_extendqisi2
 365 0034 42F03002 		orr	r2, r2, #48
 366 0038 1A70     		strb	r2, [r3]
  73:Generated_Source\PSoC5/count_time_to_transmit.c ****             count_time_to_transmit_RT1 |= count_time_to_transmit_SYNCDSI_EN;
 367              		.loc 1 73 0
 368 003a 1A78     		ldrb	r2, [r3]	@ zero_extendqisi2
 369 003c 02F0F002 		and	r2, r2, #240
 370 0040 1A70     		strb	r2, [r3]
  74:Generated_Source\PSoC5/count_time_to_transmit.c **** 
 371              		.loc 1 74 0
ARM GAS  C:\Users\Walaa\AppData\Local\Temp\ccwV3GkV.s 			page 15


 372 0042 1A78     		ldrb	r2, [r3]	@ zero_extendqisi2
 373 0044 42F00F02 		orr	r2, r2, #15
 374 0048 1A70     		strb	r2, [r3]
 100:Generated_Source\PSoC5/count_time_to_transmit.c ****         #if (!(count_time_to_transmit_UsingFixedFunction && (CY_PSOC5A)))
 375              		.loc 1 100 0
 376 004a 4FF40470 		mov	r0, #528
 377 004e FFF7FEFF 		bl	count_time_to_transmit_WritePeriod
 378              	.LVL6:
 102:Generated_Source\PSoC5/count_time_to_transmit.c ****         #endif /* (!(count_time_to_transmit_UsingFixedFunction && (CY_PSOC5A))) */
 379              		.loc 1 102 0
 380 0052 4FF40470 		mov	r0, #528
 381 0056 FFF7FEFF 		bl	count_time_to_transmit_WriteCounter
 382              	.LVL7:
 104:Generated_Source\PSoC5/count_time_to_transmit.c ****         
 383              		.loc 1 104 0
 384 005a 0020     		movs	r0, #0
 385 005c FFF7FEFF 		bl	count_time_to_transmit_SetInterruptMode
 386              	.LVL8:
 387 0060 08BD     		pop	{r3, pc}
 388              	.L36:
 389 0062 00BF     		.align	2
 390              	.L35:
 391 0064 184F0040 		.word	1073762072
 392 0068 1A4F0040 		.word	1073762074
 393 006c 194F0040 		.word	1073762073
 394 0070 234F0040 		.word	1073762083
 395              		.cfi_endproc
 396              	.LFE0:
 397              		.size	count_time_to_transmit_Init, .-count_time_to_transmit_Init
 398              		.section	.text.count_time_to_transmit_Start,"ax",%progbits
 399              		.align	2
 400              		.global	count_time_to_transmit_Start
 401              		.thumb
 402              		.thumb_func
 403              		.type	count_time_to_transmit_Start, %function
 404              	count_time_to_transmit_Start:
 405              	.LFB2:
 179:Generated_Source\PSoC5/count_time_to_transmit.c ****     if(count_time_to_transmit_initVar == 0u)
 406              		.loc 1 179 0
 407              		.cfi_startproc
 408              		@ args = 0, pretend = 0, frame = 0
 409              		@ frame_needed = 0, uses_anonymous_args = 0
 410 0000 08B5     		push	{r3, lr}
 411              		.cfi_def_cfa_offset 8
 412              		.cfi_offset 3, -8
 413              		.cfi_offset 14, -4
 180:Generated_Source\PSoC5/count_time_to_transmit.c ****     {
 414              		.loc 1 180 0
 415 0002 054B     		ldr	r3, .L40
 416 0004 1B78     		ldrb	r3, [r3]	@ zero_extendqisi2
 417 0006 23B9     		cbnz	r3, .L38
 182:Generated_Source\PSoC5/count_time_to_transmit.c ****         
 418              		.loc 1 182 0
 419 0008 FFF7FEFF 		bl	count_time_to_transmit_Init
 420              	.LVL9:
 184:Generated_Source\PSoC5/count_time_to_transmit.c ****     }
 421              		.loc 1 184 0
ARM GAS  C:\Users\Walaa\AppData\Local\Temp\ccwV3GkV.s 			page 16


 422 000c 0122     		movs	r2, #1
 423 000e 024B     		ldr	r3, .L40
 424 0010 1A70     		strb	r2, [r3]
 425              	.L38:
 188:Generated_Source\PSoC5/count_time_to_transmit.c **** }
 426              		.loc 1 188 0
 427 0012 FFF7FEFF 		bl	count_time_to_transmit_Enable
 428              	.LVL10:
 429 0016 08BD     		pop	{r3, pc}
 430              	.L41:
 431              		.align	2
 432              	.L40:
 433 0018 00000000 		.word	.LANCHOR0
 434              		.cfi_endproc
 435              	.LFE2:
 436              		.size	count_time_to_transmit_Start, .-count_time_to_transmit_Start
 437              		.section	.text.count_time_to_transmit_ReadPeriod,"ax",%progbits
 438              		.align	2
 439              		.global	count_time_to_transmit_ReadPeriod
 440              		.thumb
 441              		.thumb_func
 442              		.type	count_time_to_transmit_ReadPeriod, %function
 443              	count_time_to_transmit_ReadPeriod:
 444              	.LFB12:
 419:Generated_Source\PSoC5/count_time_to_transmit.c ****     #else
 420:Generated_Source\PSoC5/count_time_to_transmit.c ****         CY_SET_REG16(count_time_to_transmit_PERIOD_LSB_PTR, period);
 421:Generated_Source\PSoC5/count_time_to_transmit.c ****     #endif /* (count_time_to_transmit_UsingFixedFunction) */
 422:Generated_Source\PSoC5/count_time_to_transmit.c **** }
 423:Generated_Source\PSoC5/count_time_to_transmit.c **** 
 424:Generated_Source\PSoC5/count_time_to_transmit.c **** 
 425:Generated_Source\PSoC5/count_time_to_transmit.c **** /*******************************************************************************
 426:Generated_Source\PSoC5/count_time_to_transmit.c **** * Function Name: count_time_to_transmit_ReadPeriod
 427:Generated_Source\PSoC5/count_time_to_transmit.c **** ********************************************************************************
 428:Generated_Source\PSoC5/count_time_to_transmit.c **** * Summary:
 429:Generated_Source\PSoC5/count_time_to_transmit.c **** * Reads the current period value without affecting counter operation.
 430:Generated_Source\PSoC5/count_time_to_transmit.c **** *
 431:Generated_Source\PSoC5/count_time_to_transmit.c **** * Parameters:  
 432:Generated_Source\PSoC5/count_time_to_transmit.c **** *  void:  
 433:Generated_Source\PSoC5/count_time_to_transmit.c **** *
 434:Generated_Source\PSoC5/count_time_to_transmit.c **** * Return: 
 435:Generated_Source\PSoC5/count_time_to_transmit.c **** *  (uint16) Present period value.
 436:Generated_Source\PSoC5/count_time_to_transmit.c **** *
 437:Generated_Source\PSoC5/count_time_to_transmit.c **** *******************************************************************************/
 438:Generated_Source\PSoC5/count_time_to_transmit.c **** uint16 count_time_to_transmit_ReadPeriod(void) 
 439:Generated_Source\PSoC5/count_time_to_transmit.c **** {
 445              		.loc 1 439 0
 446              		.cfi_startproc
 447              		@ args = 0, pretend = 0, frame = 0
 448              		@ frame_needed = 0, uses_anonymous_args = 0
 449              		@ link register save eliminated.
 440:Generated_Source\PSoC5/count_time_to_transmit.c ****     #if(count_time_to_transmit_UsingFixedFunction)
 441:Generated_Source\PSoC5/count_time_to_transmit.c ****         return ((uint16)CY_GET_REG16(count_time_to_transmit_PERIOD_LSB_PTR));
 450              		.loc 1 441 0
 451 0000 014B     		ldr	r3, .L43
 452 0002 1888     		ldrh	r0, [r3]
 442:Generated_Source\PSoC5/count_time_to_transmit.c ****     #else
 443:Generated_Source\PSoC5/count_time_to_transmit.c ****         return (CY_GET_REG16(count_time_to_transmit_PERIOD_LSB_PTR));
ARM GAS  C:\Users\Walaa\AppData\Local\Temp\ccwV3GkV.s 			page 17


 444:Generated_Source\PSoC5/count_time_to_transmit.c ****     #endif /* (count_time_to_transmit_UsingFixedFunction) */
 445:Generated_Source\PSoC5/count_time_to_transmit.c **** }
 453              		.loc 1 445 0
 454 0004 80B2     		uxth	r0, r0
 455 0006 7047     		bx	lr
 456              	.L44:
 457              		.align	2
 458              	.L43:
 459 0008 1C4F0040 		.word	1073762076
 460              		.cfi_endproc
 461              	.LFE12:
 462              		.size	count_time_to_transmit_ReadPeriod, .-count_time_to_transmit_ReadPeriod
 463              		.global	count_time_to_transmit_initVar
 464              		.bss
 465              		.set	.LANCHOR0,. + 0
 466              		.type	count_time_to_transmit_initVar, %object
 467              		.size	count_time_to_transmit_initVar, 1
 468              	count_time_to_transmit_initVar:
 469 0000 00       		.space	1
 470              		.text
 471              	.Letext0:
 472              		.file 2 "Generated_Source\\PSoC5\\cytypes.h"
 473              		.file 3 "Generated_Source\\PSoC5\\CyLib.h"