ARM GAS  C:\Users\Walaa\AppData\Local\Temp\ccCbOZNA.s 			page 1


   1              		.syntax unified
   2              		.cpu cortex-m3
   3              		.fpu softvfp
   4              		.eabi_attribute 20, 1
   5              		.eabi_attribute 21, 1
   6              		.eabi_attribute 23, 3
   7              		.eabi_attribute 24, 1
   8              		.eabi_attribute 25, 1
   9              		.eabi_attribute 26, 1
  10              		.eabi_attribute 30, 1
  11              		.eabi_attribute 34, 1
  12              		.eabi_attribute 18, 4
  13              		.thumb
  14              		.syntax unified
  15              		.file	"main.c"
  16              		.text
  17              	.Ltext0:
  18              		.cfi_sections	.debug_frame
  19              		.section	.text.RX_INT,"ax",%progbits
  20              		.align	2
  21              		.global	RX_INT
  22              		.thumb
  23              		.thumb_func
  24              		.type	RX_INT, %function
  25              	RX_INT:
  26              	.LFB63:
  27              		.file 1 "main.c"
   1:main.c        **** /* ========================================
   2:main.c        ****  *
   3:main.c        ****  * Copyright YOUR COMPANY, THE YEAR
   4:main.c        ****  * All Rights Reserved
   5:main.c        ****  * UNPUBLISHED, LICENSED SOFTWARE.
   6:main.c        ****  *
   7:main.c        ****  * CONFIDENTIAL AND PROPRIETARY INFORMATION
   8:main.c        ****  * WHICH IS THE PROPERTY OF your company.
   9:main.c        ****  *
  10:main.c        ****  * ========================================
  11:main.c        **** */
  12:main.c        **** #include "project.h"
  13:main.c        **** #include <stdlib.h>
  14:main.c        **** #include <CyLib.h>
  15:main.c        **** 
  16:main.c        **** //serial receive ISR
  17:main.c        **** CY_ISR(RX_INT){
  28              		.loc 1 17 0
  29              		.cfi_startproc
  30              		@ args = 0, pretend = 0, frame = 0
  31              		@ frame_needed = 0, uses_anonymous_args = 0
  32 0000 08B5     		push	{r3, lr}
  33              		.cfi_def_cfa_offset 8
  34              		.cfi_offset 3, -8
  35              		.cfi_offset 14, -4
  18:main.c        ****     uint8_t RxData = UART_ReadRxData();
  36              		.loc 1 18 0
  37 0002 FFF7FEFF 		bl	UART_ReadRxData
  38              	.LVL0:
  19:main.c        ****     LCD_PutChar(RxData);
ARM GAS  C:\Users\Walaa\AppData\Local\Temp\ccCbOZNA.s 			page 2


  39              		.loc 1 19 0
  40 0006 FFF7FEFF 		bl	LCD_PutChar
  41              	.LVL1:
  42 000a 08BD     		pop	{r3, pc}
  43              		.cfi_endproc
  44              	.LFE63:
  45              		.size	RX_INT, .-RX_INT
  46              		.section	.text.main,"ax",%progbits
  47              		.align	2
  48              		.global	main
  49              		.thumb
  50              		.thumb_func
  51              		.type	main, %function
  52              	main:
  53              	.LFB64:
  20:main.c        **** }
  21:main.c        **** 
  22:main.c        **** int main(void)
  23:main.c        **** {
  54              		.loc 1 23 0
  55              		.cfi_startproc
  56              		@ Volatile: function does not return.
  57              		@ args = 0, pretend = 0, frame = 0
  58              		@ frame_needed = 0, uses_anonymous_args = 0
  59 0000 08B5     		push	{r3, lr}
  60              		.cfi_def_cfa_offset 8
  61              		.cfi_offset 3, -8
  62              		.cfi_offset 14, -4
  24:main.c        ****     CyGlobalIntEnable; /* Enable global interrupts. */
  63              		.loc 1 24 0
  64              		.syntax unified
  65              	@ 24 "main.c" 1
  66 0002 62B6     		CPSIE   i
  67              	@ 0 "" 2
  25:main.c        ****     
  26:main.c        ****     rx_int_StartEx(RX_INT);  // start RX interrupt (look for CY_ISR with RX_INT address)
  68              		.loc 1 26 0
  69              		.thumb
  70              		.syntax unified
  71 0004 0848     		ldr	r0, .L6
  72 0006 FFF7FEFF 		bl	rx_int_StartEx
  73              	.LVL2:
  27:main.c        ****     //UART_SetRxInterruptMode(UART_RX_STS_FIFO_NOTEMPTY);
  28:main.c        ****     UART_Start();
  74              		.loc 1 28 0
  75 000a FFF7FEFF 		bl	UART_Start
  76              	.LVL3:
  29:main.c        ****     UART_ClearRxBuffer();
  77              		.loc 1 29 0
  78 000e FFF7FEFF 		bl	UART_ClearRxBuffer
  79              	.LVL4:
  30:main.c        ****     
  31:main.c        ****     ShiftReg_fwd_Init();
  80              		.loc 1 31 0
  81 0012 FFF7FEFF 		bl	ShiftReg_fwd_Init
  82              	.LVL5:
  32:main.c        ****     ShiftReg_rev_Init();
ARM GAS  C:\Users\Walaa\AppData\Local\Temp\ccCbOZNA.s 			page 3


  83              		.loc 1 32 0
  84 0016 FFF7FEFF 		bl	ShiftReg_rev_Init
  85              	.LVL6:
  33:main.c        ****     
  34:main.c        ****     LCD_Start();					    // initialize lcd
  86              		.loc 1 34 0
  87 001a FFF7FEFF 		bl	LCD_Start
  88              	.LVL7:
  35:main.c        **** 	LCD_ClearDisplay();
  89              		.loc 1 35 0
  90 001e 0120     		movs	r0, #1
  91 0020 FFF7FEFF 		bl	LCD_WriteControl
  92              	.LVL8:
  93              	.L4:
  94 0024 FEE7     		b	.L4
  95              	.L7:
  96 0026 00BF     		.align	2
  97              	.L6:
  98 0028 00000000 		.word	RX_INT
  99              		.cfi_endproc
 100              	.LFE64:
 101              		.size	main, .-main
 102              		.text
 103              	.Letext0:
 104              		.file 2 "c:\\program files (x86)\\cypress\\psoc creator\\4.2\\psoc creator\\import\\gnu\\arm\\5.4.
 105              		.file 3 "c:\\program files (x86)\\cypress\\psoc creator\\4.2\\psoc creator\\import\\gnu\\arm\\5.4.
 106              		.file 4 "Generated_Source\\PSoC5/UART.h"
 107              		.file 5 "Generated_Source\\PSoC5/LCD.h"
 108              		.file 6 "Generated_Source\\PSoC5/rx_int.h"
 109              		.file 7 "Generated_Source\\PSoC5/ShiftReg_fwd.h"
 110              		.file 8 "Generated_Source\\PSoC5/ShiftReg_rev.h"
 111              		.file 9 "Generated_Source\\PSoC5/core_cm3.h"